; Function Attrs: null_pointer_is_valid sspstrong uwtable
define internal i32 @dissect_h225_DestinationInfo_item(ptr noundef %0, i32 noundef %1, ptr noundef %2, ptr noundef %3, i32 noundef %4) #0 {
  %6 = getelementptr inbounds nuw i8, ptr %2, i64 16
  %7 = load ptr, ptr %6, align 8
  %8 = getelementptr inbounds nuw i8, ptr %7, i64 408
  %9 = load ptr, ptr %8, align 8
  %10 = load i32, ptr @proto_h225, align 4
  %11 = tail call ptr @p_get_proto_data(ptr noundef %9, ptr noundef %7, i32 noundef %10, i32 noundef 0)
  %.not = icmp eq ptr %11, null
  br i1 %.not, label %14, label %12

12:                                               ; preds = %5
  %13 = getelementptr inbounds nuw i8, ptr %11, i64 195
  store i8 1, ptr %13, align 1
  br label %14

14:                                               ; preds = %12, %5
  %15 = load i32, ptr @ett_h225_AliasAddress, align 4
  %16 = tail call i32 @dissect_per_choice(ptr noundef %0, i32 noundef %1, ptr noundef %2, ptr noundef %3, i32 noundef %4, i32 noundef %15, ptr noundef nonnull @AliasAddress_choice, ptr noundef null)
  ret i32 %16
}